target datalayout = "e-m:e-p270:32:32-p271:32:32-p272:64:64-i64:64-i128:128-f80:128-n8:16:32:64-S128"
target triple = "x86_64-pc-linux-gnu"

%struct._GtkDarktableIcon = type { %struct._GtkEventBox, ptr, i32, ptr }
%struct._GtkEventBox = type { %struct._GtkBin, ptr }
%struct._GtkBin = type { %struct._GtkContainer, ptr }
%struct._GtkContainer = type { %struct._GtkWidget, ptr }
%struct._GtkWidget = type { %struct._GObject, ptr }
%struct._GObject = type { %struct._GTypeInstance, i32, ptr }
%struct._GTypeInstance = type { ptr }

@dtgtk_icon_get_type.static_g_define_type_id = internal global i64 0, align 8
@__func__.dtgtk_icon_set_paint = private unnamed_addr constant [21 x i8] c"dtgtk_icon_set_paint\00", align 1
@.str.1 = private unnamed_addr constant [13 x i8] c"icon != NULL\00", align 1

; Function Attrs: nounwind uwtable
define i64 @dtgtk_icon_get_type() #0 {
  %1 = alloca i32, align 4
  %2 = alloca i64, align 8
  %3 = alloca ptr, align 8
  %4 = alloca i64, align 8
  %5 = alloca i64, align 8
  call void @llvm.lifetime.start.p0(i64 8, ptr %2) #8
  call void @llvm.lifetime.start.p0(i64 8, ptr %3) #8
  store ptr @dtgtk_icon_get_type.static_g_define_type_id, ptr %3, align 8, !tbaa !6
  %6 = load ptr, ptr %3, align 8, !tbaa !6
  %7 = load atomic i64, ptr %6 seq_cst, align 8
  store i64 %7, ptr %2, align 8
  %8 = load i64, ptr %2, align 8, !tbaa !11
  store i64 %8, ptr %4, align 8, !tbaa !11
  call void @llvm.lifetime.end.p0(i64 8, ptr %3) #8
  call void @llvm.lifetime.end.p0(i64 8, ptr %2) #8
  %9 = load i64, ptr %4, align 8, !tbaa !11
  %10 = icmp ne i64 %9, 0
  br i1 %10, label %14, label %11

11:                                               ; preds = %0
  %12 = call i32 @g_once_init_enter(ptr noundef @dtgtk_icon_get_type.static_g_define_type_id)
  %13 = icmp ne i32 %12, 0
  br label %14

14:                                               ; preds = %11, %0
  %15 = phi i1 [ false, %0 ], [ %13, %11 ]
  %16 = zext i1 %15 to i32
  store i32 %16, ptr %1, align 4, !tbaa !13
  %17 = load i32, ptr %1, align 4, !tbaa !13
  %18 = icmp ne i32 %17, 0
  br i1 %18, label %19, label %22

19:                                               ; preds = %14
  call void @llvm.lifetime.start.p0(i64 8, ptr %5) #8
  %20 = call i64 @dtgtk_icon_get_type_once()
  store i64 %20, ptr %5, align 8, !tbaa !11
  %21 = load i64, ptr %5, align 8, !tbaa !11
  call void @g_once_init_leave(ptr noundef @dtgtk_icon_get_type.static_g_define_type_id, i64 noundef %21)
  call void @llvm.lifetime.end.p0(i64 8, ptr %5) #8
  br label %22

22:                                               ; preds = %19, %14
  %23 = load i64, ptr @dtgtk_icon_get_type.static_g_define_type_id, align 8, !tbaa !11
  ret i64 %23
}

; Function Attrs: inlinehint nounwind uwtable
define internal ptr @DTGTK_ICON(ptr noundef %0) #6 {
  %2 = alloca ptr, align 8
  store ptr %0, ptr %2, align 8, !tbaa !15
  %3 = load ptr, ptr %2, align 8, !tbaa !15
  %4 = call i64 @dtgtk_icon_get_type()
  %5 = call ptr @g_type_check_instance_cast(ptr noundef %3, i64 noundef %4)
  ret ptr %5
}

; Function Attrs: nounwind uwtable
define void @dtgtk_icon_set_paint(ptr noundef %0, ptr noundef %1, i32 noundef %2, ptr noundef %3) #0 {
  %5 = alloca ptr, align 8
  %6 = alloca ptr, align 8
  %7 = alloca i32, align 4
  %8 = alloca ptr, align 8
  %9 = alloca i32, align 4
  %10 = alloca i32, align 4
  store ptr %0, ptr %5, align 8, !tbaa !34
  store ptr %1, ptr %6, align 8, !tbaa !15
  store i32 %2, ptr %7, align 4, !tbaa !13
  store ptr %3, ptr %8, align 8, !tbaa !15
  br label %11

11:                                               ; preds = %4
  call void @llvm.lifetime.start.p0(i64 4, ptr %9) #8
  %12 = load ptr, ptr %5, align 8, !tbaa !34
  %13 = icmp ne ptr %12, null
  br i1 %13, label %14, label %15

14:                                               ; preds = %11
  store i32 1, ptr %9, align 4, !tbaa !13
  br label %16

15:                                               ; preds = %11
  store i32 0, ptr %9, align 4, !tbaa !13
  br label %16

16:                                               ; preds = %15, %14
  %17 = load i32, ptr %9, align 4, !tbaa !13
  store i32 %17, ptr %10, align 4, !tbaa !13
  call void @llvm.lifetime.end.p0(i64 4, ptr %9) #8
  %18 = load i32, ptr %10, align 4, !tbaa !13
  %19 = sext i32 %18 to i64
  %20 = call i64 @llvm.expect.i64(i64 %19, i64 1)
  %21 = icmp ne i64 %20, 0
  br i1 %21, label %22, label %23

22:                                               ; preds = %16
  br label %24

23:                                               ; preds = %16
  call void @g_return_if_fail_warning(ptr noundef null, ptr noundef @__func__.dtgtk_icon_set_paint, ptr noundef @.str.1)
  br label %39

24:                                               ; preds = %22
  br label %25

25:                                               ; preds = %24
  %26 = load ptr, ptr %6, align 8, !tbaa !15
  %27 = load ptr, ptr %5, align 8, !tbaa !34
  %28 = call ptr @DTGTK_ICON(ptr noundef %27)
  %29 = getelementptr inbounds nuw %struct._GtkDarktableIcon, ptr %28, i32 0, i32 1
  store ptr %26, ptr %29, align 8, !tbaa !18
  %30 = load i32, ptr %7, align 4, !tbaa !13
  %31 = load ptr, ptr %5, align 8, !tbaa !34
  %32 = call ptr @DTGTK_ICON(ptr noundef %31)
  %33 = getelementptr inbounds nuw %struct._GtkDarktableIcon, ptr %32, i32 0, i32 2
  store i32 %30, ptr %33, align 8, !tbaa !32
  %34 = load ptr, ptr %8, align 8, !tbaa !15
  %35 = load ptr, ptr %5, align 8, !tbaa !34
  %36 = call ptr @DTGTK_ICON(ptr noundef %35)
  %37 = getelementptr inbounds nuw %struct._GtkDarktableIcon, ptr %36, i32 0, i32 3
  store ptr %34, ptr %37, align 8, !tbaa !33
  %38 = load ptr, ptr %5, align 8, !tbaa !34
  call void @gtk_widget_queue_draw(ptr noundef %38)
  br label %39

39:                                               ; preds = %25, %23
  ret void
}