; Function Attrs: nounwind uwtable
define void @dtgtk_icon_set_paint(ptr noundef %0, ptr noundef %1, i32 noundef %2, ptr noundef %3) local_unnamed_addr #0 {
  %.not = icmp eq ptr %0, null
  br i1 %.not, label %5, label %6, !prof !28

5:                                                ; preds = %4
  tail call void @g_return_if_fail_warning(ptr noundef null, ptr noundef nonnull @__func__.dtgtk_icon_set_paint, ptr noundef nonnull @.str.1) #7
  br label %31

6:                                                ; preds = %4
  %7 = load atomic i64, ptr @dtgtk_icon_get_type.static_g_define_type_id seq_cst, align 8
  %.not.i.i = icmp eq i64 %7, 0
  br i1 %.not.i.i, label %8, label %DTGTK_ICON.exit

8:                                                ; preds = %6
  %9 = tail call i32 @g_once_init_enter(ptr noundef nonnull @dtgtk_icon_get_type.static_g_define_type_id) #7
  %.not4.i.i = icmp eq i32 %9, 0
  br i1 %.not4.i.i, label %DTGTK_ICON.exit, label %10

10:                                               ; preds = %8
  %11 = tail call fastcc i64 @dtgtk_icon_get_type_once()
  tail call void @g_once_init_leave(ptr noundef nonnull @dtgtk_icon_get_type.static_g_define_type_id, i64 noundef %11) #7
  br label %DTGTK_ICON.exit

DTGTK_ICON.exit:                                  ; preds = %6, %8, %10
  %12 = load i64, ptr @dtgtk_icon_get_type.static_g_define_type_id, align 8, !tbaa !6
  %13 = tail call ptr @g_type_check_instance_cast(ptr noundef nonnull %0, i64 noundef %12) #7
  %14 = getelementptr inbounds nuw i8, ptr %13, i64 56
  store ptr %1, ptr %14, align 8, !tbaa !10
  %15 = load atomic i64, ptr @dtgtk_icon_get_type.static_g_define_type_id seq_cst, align 8
  %.not.i.i10 = icmp eq i64 %15, 0
  br i1 %.not.i.i10, label %16, label %DTGTK_ICON.exit12

16:                                               ; preds = %DTGTK_ICON.exit
  %17 = tail call i32 @g_once_init_enter(ptr noundef nonnull @dtgtk_icon_get_type.static_g_define_type_id) #7
  %.not4.i.i11 = icmp eq i32 %17, 0
  br i1 %.not4.i.i11, label %DTGTK_ICON.exit12, label %18

18:                                               ; preds = %16
  %19 = tail call fastcc i64 @dtgtk_icon_get_type_once()
  tail call void @g_once_init_leave(ptr noundef nonnull @dtgtk_icon_get_type.static_g_define_type_id, i64 noundef %19) #7
  br label %DTGTK_ICON.exit12

DTGTK_ICON.exit12:                                ; preds = %DTGTK_ICON.exit, %16, %18
  %20 = load i64, ptr @dtgtk_icon_get_type.static_g_define_type_id, align 8, !tbaa !6
  %21 = tail call ptr @g_type_check_instance_cast(ptr noundef nonnull %0, i64 noundef %20) #7
  %22 = getelementptr inbounds nuw i8, ptr %21, i64 64
  store i32 %2, ptr %22, align 8, !tbaa !26
  %23 = load atomic i64, ptr @dtgtk_icon_get_type.static_g_define_type_id seq_cst, align 8
  %.not.i.i13 = icmp eq i64 %23, 0
  br i1 %.not.i.i13, label %24, label %DTGTK_ICON.exit15

24:                                               ; preds = %DTGTK_ICON.exit12
  %25 = tail call i32 @g_once_init_enter(ptr noundef nonnull @dtgtk_icon_get_type.static_g_define_type_id) #7
  %.not4.i.i14 = icmp eq i32 %25, 0
  br i1 %.not4.i.i14, label %DTGTK_ICON.exit15, label %26

26:                                               ; preds = %24
  %27 = tail call fastcc i64 @dtgtk_icon_get_type_once()
  tail call void @g_once_init_leave(ptr noundef nonnull @dtgtk_icon_get_type.static_g_define_type_id, i64 noundef %27) #7
  br label %DTGTK_ICON.exit15

DTGTK_ICON.exit15:                                ; preds = %DTGTK_ICON.exit12, %24, %26
  %28 = load i64, ptr @dtgtk_icon_get_type.static_g_define_type_id, align 8, !tbaa !6
  %29 = tail call ptr @g_type_check_instance_cast(ptr noundef nonnull %0, i64 noundef %28) #7
  %30 = getelementptr inbounds nuw i8, ptr %29, i64 72
  store ptr %3, ptr %30, align 8, !tbaa !27
  tail call void @gtk_widget_queue_draw(ptr noundef nonnull %0) #7
  br label %31

31:                                               ; preds = %DTGTK_ICON.exit15, %5
  ret void
}